target datalayout = "e-m:e-p270:32:32-p271:32:32-p272:64:64-i64:64-i128:128-f80:128-n8:16:32:64-S128"
target triple = "x86_64-pc-linux-gnu"

%"class.pxrInternal_v0_24__pxrReserved__::GfInterval" = type { %"struct.pxrInternal_v0_24__pxrReserved__::GfInterval::_Bound", %"struct.pxrInternal_v0_24__pxrReserved__::GfInterval::_Bound" }
%"struct.pxrInternal_v0_24__pxrReserved__::GfInterval::_Bound" = type <{ double, i8, [7 x i8] }>
%"class.pxrInternal_v0_24__pxrReserved__::GfMultiInterval" = type { %"class.std::set" }
%"class.std::set" = type { %"class.std::_Rb_tree" }
%"class.std::_Rb_tree" = type { %"struct.std::_Rb_tree<pxrInternal_v0_24__pxrReserved__::GfInterval, pxrInternal_v0_24__pxrReserved__::GfInterval, std::_Identity<pxrInternal_v0_24__pxrReserved__::GfInterval>, std::less<pxrInternal_v0_24__pxrReserved__::GfInterval>>::_Rb_tree_impl" }
%"struct.std::_Rb_tree<pxrInternal_v0_24__pxrReserved__::GfInterval, pxrInternal_v0_24__pxrReserved__::GfInterval, std::_Identity<pxrInternal_v0_24__pxrReserved__::GfInterval>, std::less<pxrInternal_v0_24__pxrReserved__::GfInterval>>::_Rb_tree_impl" = type { [8 x i8], %"struct.std::_Rb_tree_header" }
%"struct.std::_Rb_tree_header" = type { %"struct.std::_Rb_tree_node_base", i64 }
%"struct.std::_Rb_tree_node_base" = type { i32, ptr, ptr, ptr }
%"class.__gnu_cxx::__normal_iterator.31" = type { ptr }
%class.anon = type { ptr, ptr }
%"class.tbb::detail::d1::task" = type { ptr, %"class.tbb::detail::d1::task_traits", [6 x i64] }
%"class.tbb::detail::d1::task_traits" = type { i64 }
%"class.tbb::detail::d1::blocked_range" = type { i64, i64, i64 }
%"class.tbb::detail::d2::parallel_for_body_wrapper" = type { %"class.__gnu_cxx::__normal_iterator.31", ptr, ptr }
%"class.tbb::detail::d1::small_object_allocator" = type { ptr }
%"struct.tbb::detail::d1::start_for" = type { %"class.tbb::detail::d1::task", %"class.tbb::detail::d1::blocked_range", %"class.tbb::detail::d2::parallel_for_body_wrapper", ptr, %"class.tbb::detail::d1::auto_partition_type", %"class.tbb::detail::d1::small_object_allocator", [48 x i8] }
%"class.tbb::detail::d1::auto_partition_type" = type { %"struct.tbb::detail::d1::dynamic_grainsize_mode.base", [3 x i8] }
%"struct.tbb::detail::d1::dynamic_grainsize_mode.base" = type <{ %"struct.tbb::detail::d1::adaptive_mode", i32, i8 }>
%"struct.tbb::detail::d1::adaptive_mode" = type { i64 }

; Function Attrs: mustprogress uwtable
define internal void @"_ZZN32pxrInternal_v0_24__pxrReserved__27TsSimplifySplinesInParallelERKSt6vectorIPNS_8TsSplineESaIS2_EERKS0_INS_15GfMultiIntervalESaIS7_EEddENK3$_0clES2_"(ptr noundef nonnull align 8 dereferenceable(16) %0, ptr noundef %1) #4 align 2 personality ptr @__gxx_personality_v0 {
  %3 = alloca ptr, align 8
  %4 = alloca ptr, align 8
  %5 = alloca %"class.pxrInternal_v0_24__pxrReserved__::GfMultiInterval", align 8
  %6 = alloca %"class.pxrInternal_v0_24__pxrReserved__::GfInterval", align 8
  %7 = alloca ptr, align 8
  %8 = alloca i32, align 4
  store ptr %0, ptr %3, align 8
  store ptr %1, ptr %4, align 8
  %9 = load ptr, ptr %3, align 8
  %10 = load ptr, ptr %4, align 8
  %11 = load ptr, ptr %4, align 8
  call void @_ZNK32pxrInternal_v0_24__pxrReserved__8TsSpline13GetFrameRangeEv(ptr dead_on_unwind writable sret(%"class.pxrInternal_v0_24__pxrReserved__::GfInterval") align 8 %6, ptr noundef nonnull align 8 dereferenceable(16) %11)
  call void @_ZN32pxrInternal_v0_24__pxrReserved__15GfMultiIntervalC1ERKNS_10GfIntervalE(ptr noundef nonnull align 8 dereferenceable(48) %5, ptr noundef nonnull align 8 dereferenceable(32) %6)
  %12 = getelementptr inbounds nuw %class.anon, ptr %9, i32 0, i32 0
  %13 = load ptr, ptr %12, align 8
  %14 = load double, ptr %13, align 8
  %15 = getelementptr inbounds nuw %class.anon, ptr %9, i32 0, i32 1
  %16 = load ptr, ptr %15, align 8
  %17 = load double, ptr %16, align 8
  invoke void @_ZN32pxrInternal_v0_24__pxrReserved__16TsSimplifySplineEPNS_8TsSplineERKNS_15GfMultiIntervalEdd(ptr noundef %10, ptr noundef nonnull align 8 dereferenceable(48) %5, double noundef %14, double noundef %17)
          to label %18 unwind label %19

18:                                               ; preds = %2
  call void @_ZN32pxrInternal_v0_24__pxrReserved__15GfMultiIntervalD2Ev(ptr noundef nonnull align 8 dereferenceable(48) %5) #3
  ret void

19:                                               ; preds = %2
  %20 = landingpad { ptr, i32 }
          cleanup
  %21 = extractvalue { ptr, i32 } %20, 0
  store ptr %21, ptr %7, align 8
  %22 = extractvalue { ptr, i32 } %20, 1
  store i32 %22, ptr %8, align 4
  call void @_ZN32pxrInternal_v0_24__pxrReserved__15GfMultiIntervalD2Ev(ptr noundef nonnull align 8 dereferenceable(48) %5) #3
  br label %23

23:                                               ; preds = %19
  %24 = load ptr, ptr %7, align 8
  %25 = load i32, ptr %8, align 4
  %26 = insertvalue { ptr, i32 } poison, ptr %24, 0
  %27 = insertvalue { ptr, i32 } %26, i32 %25, 1
  resume { ptr, i32 } %27
}

; Function Attrs: mustprogress nounwind uwtable
define linkonce_odr void @_ZN9__gnu_cxx17__normal_iteratorIPKPN32pxrInternal_v0_24__pxrReserved__8TsSplineESt6vectorIS3_SaIS3_EEEC2ERKS5_(ptr noundef nonnull align 8 dereferenceable(8) %0, ptr noundef nonnull align 8 dereferenceable(8) %1) unnamed_addr #5 comdat align 2 {
  %3 = alloca ptr, align 8
  %4 = alloca ptr, align 8
  store ptr %0, ptr %3, align 8
  store ptr %1, ptr %4, align 8
  %5 = load ptr, ptr %3, align 8
  %6 = getelementptr inbounds nuw %"class.__gnu_cxx::__normal_iterator.31", ptr %5, i32 0, i32 0
  %7 = load ptr, ptr %4, align 8
  %8 = load ptr, ptr %7, align 8
  store ptr %8, ptr %6, align 8
  ret void
}

; Function Attrs: mustprogress uwtable
define internal void @"_ZN3tbb6detail2d235parallel_for_each_operator_selectorIZN32pxrInternal_v0_24__pxrReserved__27TsSimplifySplinesInParallelERKSt6vectorIPNS3_8TsSplineESaIS6_EERKS4_INS3_15GfMultiIntervalESaISB_EEddE3$_0E4callIRKS6_NS1_11feeder_implISG_S6_EEEEDTcmclfp_clsr3stdE7forwardIT_Efp0_EEcvv_EERKSG_OSN_PT0_"(ptr noundef nonnull align 8 dereferenceable(16) %0, ptr noundef nonnull align 8 dereferenceable(8) %1, ptr noundef %2) #4 align 2 {
  %4 = alloca ptr, align 8
  %5 = alloca ptr, align 8
  %6 = alloca ptr, align 8
  store ptr %0, ptr %4, align 8
  store ptr %1, ptr %5, align 8
  store ptr %2, ptr %6, align 8
  %7 = load ptr, ptr %4, align 8
  %8 = load ptr, ptr %5, align 8
  %9 = load ptr, ptr %8, align 8
  call void @"_ZZN32pxrInternal_v0_24__pxrReserved__27TsSimplifySplinesInParallelERKSt6vectorIPNS_8TsSplineESaIS2_EERKS0_INS_15GfMultiIntervalESaIS7_EEddENK3$_0clES2_"(ptr noundef nonnull align 8 dereferenceable(16) %7, ptr noundef %9)
  ret void
}

; Function Attrs: mustprogress nounwind uwtable
define linkonce_odr noundef nonnull align 8 dereferenceable(8) ptr @_ZNK9__gnu_cxx17__normal_iteratorIPKPN32pxrInternal_v0_24__pxrReserved__8TsSplineESt6vectorIS3_SaIS3_EEEdeEv(ptr noundef nonnull align 8 dereferenceable(8) %0) #5 comdat align 2 {
  %2 = alloca ptr, align 8
  store ptr %0, ptr %2, align 8
  %3 = load ptr, ptr %2, align 8
  %4 = getelementptr inbounds nuw %"class.__gnu_cxx::__normal_iterator.31", ptr %3, i32 0, i32 0
  %5 = load ptr, ptr %4, align 8
  ret ptr %5
}

; Function Attrs: mustprogress nounwind uwtable
define linkonce_odr ptr @_ZNK9__gnu_cxx17__normal_iteratorIPKPN32pxrInternal_v0_24__pxrReserved__8TsSplineESt6vectorIS3_SaIS3_EEEplEl(ptr noundef nonnull align 8 dereferenceable(8) %0, i64 noundef %1) #5 comdat align 2 {
  %3 = alloca %"class.__gnu_cxx::__normal_iterator.31", align 8
  %4 = alloca ptr, align 8
  %5 = alloca i64, align 8
  %6 = alloca ptr, align 8
  store ptr %0, ptr %4, align 8
  store i64 %1, ptr %5, align 8
  %7 = load ptr, ptr %4, align 8
  %8 = getelementptr inbounds nuw %"class.__gnu_cxx::__normal_iterator.31", ptr %7, i32 0, i32 0
  %9 = load ptr, ptr %8, align 8
  %10 = load i64, ptr %5, align 8
  %11 = getelementptr inbounds ptr, ptr %9, i64 %10
  store ptr %11, ptr %6, align 8
  call void @_ZN9__gnu_cxx17__normal_iteratorIPKPN32pxrInternal_v0_24__pxrReserved__8TsSplineESt6vectorIS3_SaIS3_EEEC2ERKS5_(ptr noundef nonnull align 8 dereferenceable(8) %3, ptr noundef nonnull align 8 dereferenceable(8) %6) #3
  %12 = getelementptr inbounds nuw %"class.__gnu_cxx::__normal_iterator.31", ptr %3, i32 0, i32 0
  %13 = load ptr, ptr %12, align 8
  ret ptr %13
}

; Function Attrs: mustprogress nounwind uwtable
define linkonce_odr noundef i64 @_ZNK3tbb6detail2d113blocked_rangeImE3endEv(ptr noundef nonnull align 8 dereferenceable(24) %0) #5 comdat align 2 {
  %2 = alloca ptr, align 8
  store ptr %0, ptr %2, align 8
  %3 = load ptr, ptr %2, align 8
  %4 = getelementptr inbounds nuw %"class.tbb::detail::d1::blocked_range", ptr %3, i32 0, i32 0
  %5 = load i64, ptr %4, align 8
  ret i64 %5
}

; Function Attrs: mustprogress nounwind uwtable
define linkonce_odr noundef i64 @_ZNK3tbb6detail2d113blocked_rangeImE5beginEv(ptr noundef nonnull align 8 dereferenceable(24) %0) #5 comdat align 2 {
  %2 = alloca ptr, align 8
  store ptr %0, ptr %2, align 8
  %3 = load ptr, ptr %2, align 8
  %4 = getelementptr inbounds nuw %"class.tbb::detail::d1::blocked_range", ptr %3, i32 0, i32 1
  %5 = load i64, ptr %4, align 8
  ret i64 %5
}

; Function Attrs: mustprogress uwtable
define internal void @"_ZNK3tbb6detail2d225parallel_for_body_wrapperIN9__gnu_cxx17__normal_iteratorIPKPN32pxrInternal_v0_24__pxrReserved__8TsSplineESt6vectorIS7_SaIS7_EEEEZNS5_27TsSimplifySplinesInParallelERKSC_RKSA_INS5_15GfMultiIntervalESaISG_EEddE3$_0S7_EclENS0_2d113blocked_rangeImEE"(ptr noundef nonnull align 8 dereferenceable(24) %0, ptr noundef byval(%"class.tbb::detail::d1::blocked_range") align 8 %1) #4 align 2 {
  %3 = alloca ptr, align 8
  %4 = alloca i64, align 8
  %5 = alloca %"class.__gnu_cxx::__normal_iterator.31", align 8
  store ptr %0, ptr %3, align 8
  %6 = load ptr, ptr %3, align 8
  %7 = call noundef i64 @_ZNK3tbb6detail2d113blocked_rangeImE5beginEv(ptr noundef nonnull align 8 dereferenceable(24) %1)
  store i64 %7, ptr %4, align 8
  br label %8

8:                                                ; preds = %22, %2
  %9 = load i64, ptr %4, align 8
  %10 = call noundef i64 @_ZNK3tbb6detail2d113blocked_rangeImE3endEv(ptr noundef nonnull align 8 dereferenceable(24) %1)
  %11 = icmp ne i64 %9, %10
  br i1 %11, label %12, label %25

12:                                               ; preds = %8
  %13 = getelementptr inbounds nuw %"class.tbb::detail::d2::parallel_for_body_wrapper", ptr %6, i32 0, i32 1
  %14 = load ptr, ptr %13, align 8
  %15 = getelementptr inbounds nuw %"class.tbb::detail::d2::parallel_for_body_wrapper", ptr %6, i32 0, i32 0
  %16 = load i64, ptr %4, align 8
  %17 = call ptr @_ZNK9__gnu_cxx17__normal_iteratorIPKPN32pxrInternal_v0_24__pxrReserved__8TsSplineESt6vectorIS3_SaIS3_EEEplEl(ptr noundef nonnull align 8 dereferenceable(8) %15, i64 noundef %16) #3
  %18 = getelementptr inbounds nuw %"class.__gnu_cxx::__normal_iterator.31", ptr %5, i32 0, i32 0
  store ptr %17, ptr %18, align 8
  %19 = call noundef nonnull align 8 dereferenceable(8) ptr @_ZNK9__gnu_cxx17__normal_iteratorIPKPN32pxrInternal_v0_24__pxrReserved__8TsSplineESt6vectorIS3_SaIS3_EEEdeEv(ptr noundef nonnull align 8 dereferenceable(8) %5) #3
  %20 = getelementptr inbounds nuw %"class.tbb::detail::d2::parallel_for_body_wrapper", ptr %6, i32 0, i32 2
  %21 = load ptr, ptr %20, align 8
  call void @"_ZN3tbb6detail2d235parallel_for_each_operator_selectorIZN32pxrInternal_v0_24__pxrReserved__27TsSimplifySplinesInParallelERKSt6vectorIPNS3_8TsSplineESaIS6_EERKS4_INS3_15GfMultiIntervalESaISB_EEddE3$_0E4callIRKS6_NS1_11feeder_implISG_S6_EEEEDTcmclfp_clsr3stdE7forwardIT_Efp0_EEcvv_EERKSG_OSN_PT0_"(ptr noundef nonnull align 8 dereferenceable(16) %14, ptr noundef nonnull align 8 dereferenceable(8) %19, ptr noundef %21)
  br label %22

22:                                               ; preds = %12
  %23 = load i64, ptr %4, align 8
  %24 = add i64 %23, 1
  store i64 %24, ptr %4, align 8
  br label %8, !llvm.loop !28

25:                                               ; preds = %8
  ret void
}

; Function Attrs: mustprogress uwtable
define internal void @"_ZN3tbb6detail2d19start_forINS1_13blocked_rangeImEENS0_2d225parallel_for_body_wrapperIN9__gnu_cxx17__normal_iteratorIPKPN32pxrInternal_v0_24__pxrReserved__8TsSplineESt6vectorISB_SaISB_EEEEZNS9_27TsSimplifySplinesInParallelERKSG_RKSE_INS9_15GfMultiIntervalESaISK_EEddE3$_0SB_EEKNS1_16auto_partitionerEE8run_bodyERS4_"(ptr noundef nonnull align 64 dereferenceable(144) %0, ptr noundef nonnull align 8 dereferenceable(24) %1) #4 align 2 {
  %3 = alloca ptr, align 8
  %4 = alloca ptr, align 8
  %5 = alloca %"class.tbb::detail::d1::blocked_range", align 8
  store ptr %0, ptr %3, align 8
  store ptr %1, ptr %4, align 8
  %6 = load ptr, ptr %3, align 8
  %7 = getelementptr inbounds nuw %"struct.tbb::detail::d1::start_for", ptr %6, i32 0, i32 2
  %8 = load ptr, ptr %4, align 8
  call void @llvm.memcpy.p0.p0.i64(ptr align 8 %5, ptr align 8 %8, i64 24, i1 false)
  call void @"_ZNK3tbb6detail2d225parallel_for_body_wrapperIN9__gnu_cxx17__normal_iteratorIPKPN32pxrInternal_v0_24__pxrReserved__8TsSplineESt6vectorIS7_SaIS7_EEEEZNS5_27TsSimplifySplinesInParallelERKSC_RKSA_INS5_15GfMultiIntervalESaISG_EEddE3$_0S7_EclENS0_2d113blocked_rangeImEE"(ptr noundef nonnull align 8 dereferenceable(24) %7, ptr noundef byval(%"class.tbb::detail::d1::blocked_range") align 8 %5)
  ret void
}