; Function Attrs: mustprogress uwtable
define internal fastcc void @"_ZN3tbb6detail2d19start_forINS1_13blocked_rangeImEENS0_2d225parallel_for_body_wrapperIN9__gnu_cxx17__normal_iteratorIPKPN32pxrInternal_v0_24__pxrReserved__8TsSplineESt6vectorISB_SaISB_EEEEZNS9_27TsSimplifySplinesInParallelERKSG_RKSE_INS9_15GfMultiIntervalESaISK_EEddE3$_0SB_EEKNS1_16auto_partitionerEE8run_bodyERS4_"(ptr noundef nonnull readonly align 64 captures(none) dereferenceable(144) %0, ptr noundef nonnull readonly align 8 captures(none) dereferenceable(24) %1) unnamed_addr #3 align 2 personality ptr @__gxx_personality_v0 {
  %3 = alloca %"class.pxrInternal_v0_24__pxrReserved__::GfMultiInterval", align 8
  %4 = alloca %"class.pxrInternal_v0_24__pxrReserved__::GfInterval", align 8
  %5 = getelementptr inbounds nuw i8, ptr %0, i64 88
  %.sroa.0.0.copyload = load i64, ptr %1, align 8
  %.sroa.2.0..sroa_idx = getelementptr inbounds nuw i8, ptr %1, i64 8
  %.sroa.2.0.copyload = load i64, ptr %.sroa.2.0..sroa_idx, align 8
  %.not1.i = icmp eq i64 %.sroa.2.0.copyload, %.sroa.0.0.copyload
  br i1 %.not1.i, label %"_ZNK3tbb6detail2d225parallel_for_body_wrapperIN9__gnu_cxx17__normal_iteratorIPKPN32pxrInternal_v0_24__pxrReserved__8TsSplineESt6vectorIS7_SaIS7_EEEEZNS5_27TsSimplifySplinesInParallelERKSC_RKSA_INS5_15GfMultiIntervalESaISG_EEddE3$_0S7_EclENS0_2d113blocked_rangeImEE.exit", label %.lr.ph.i

.lr.ph.i:                                         ; preds = %2
  %6 = getelementptr inbounds nuw i8, ptr %0, i64 96
  %7 = getelementptr inbounds nuw i8, ptr %3, i64 16
  br label %8

8:                                                ; preds = %"_ZN3tbb6detail2d235parallel_for_each_operator_selectorIZN32pxrInternal_v0_24__pxrReserved__27TsSimplifySplinesInParallelERKSt6vectorIPNS3_8TsSplineESaIS6_EERKS4_INS3_15GfMultiIntervalESaISB_EEddE3$_0E4callIRKS6_NS1_11feeder_implISG_S6_EEEEDTcmclfp_clsr3stdE7forwardIT_Efp0_EEcvv_EERKSG_OSN_PT0_.exit.i", %.lr.ph.i
  %.02.i = phi i64 [ %.sroa.2.0.copyload, %.lr.ph.i ], [ %24, %"_ZN3tbb6detail2d235parallel_for_each_operator_selectorIZN32pxrInternal_v0_24__pxrReserved__27TsSimplifySplinesInParallelERKSt6vectorIPNS3_8TsSplineESaIS6_EERKS4_INS3_15GfMultiIntervalESaISB_EEddE3$_0E4callIRKS6_NS1_11feeder_implISG_S6_EEEEDTcmclfp_clsr3stdE7forwardIT_Efp0_EEcvv_EERKSG_OSN_PT0_.exit.i" ]
  %9 = load ptr, ptr %6, align 32
  %10 = load ptr, ptr %5, align 8
  %11 = getelementptr inbounds ptr, ptr %10, i64 %.02.i
  %.val.i = load ptr, ptr %11, align 8
  call void @llvm.lifetime.start.p0(i64 48, ptr nonnull %3)
  call void @llvm.lifetime.start.p0(i64 32, ptr nonnull %4)
  call void @_ZNK32pxrInternal_v0_24__pxrReserved__8TsSpline13GetFrameRangeEv(ptr dead_on_unwind nonnull writable sret(%"class.pxrInternal_v0_24__pxrReserved__::GfInterval") align 8 %4, ptr noundef nonnull align 8 dereferenceable(16) %.val.i)
  call void @_ZN32pxrInternal_v0_24__pxrReserved__15GfMultiIntervalC1ERKNS_10GfIntervalE(ptr noundef nonnull align 8 dereferenceable(48) %3, ptr noundef nonnull align 8 dereferenceable(32) %4)
  %12 = load ptr, ptr %9, align 8
  %13 = load double, ptr %12, align 8
  %14 = getelementptr inbounds nuw i8, ptr %9, i64 8
  %15 = load ptr, ptr %14, align 8
  %16 = load double, ptr %15, align 8
  invoke void @_ZN32pxrInternal_v0_24__pxrReserved__16TsSimplifySplineEPNS_8TsSplineERKNS_15GfMultiIntervalEdd(ptr noundef nonnull %.val.i, ptr noundef nonnull align 8 dereferenceable(48) %3, double noundef %13, double noundef %16)
          to label %17 unwind label %22

17:                                               ; preds = %8
  %18 = load ptr, ptr %7, align 8
  invoke void @_ZNSt8_Rb_treeIN32pxrInternal_v0_24__pxrReserved__10GfIntervalES1_St9_IdentityIS1_ESt4lessIS1_ESaIS1_EE8_M_eraseEPSt13_Rb_tree_nodeIS1_E(ptr noundef nonnull align 8 dereferenceable(48) %3, ptr noundef %18)
          to label %"_ZN3tbb6detail2d235parallel_for_each_operator_selectorIZN32pxrInternal_v0_24__pxrReserved__27TsSimplifySplinesInParallelERKSt6vectorIPNS3_8TsSplineESaIS6_EERKS4_INS3_15GfMultiIntervalESaISB_EEddE3$_0E4callIRKS6_NS1_11feeder_implISG_S6_EEEEDTcmclfp_clsr3stdE7forwardIT_Efp0_EEcvv_EERKSG_OSN_PT0_.exit.i" unwind label %19

19:                                               ; preds = %17
  %20 = landingpad { ptr, i32 }
          catch ptr null
  %21 = extractvalue { ptr, i32 } %20, 0
  call void @__clang_call_terminate(ptr %21) #25
  unreachable

22:                                               ; preds = %8
  %23 = landingpad { ptr, i32 }
          cleanup
  call void @_ZN32pxrInternal_v0_24__pxrReserved__15GfMultiIntervalD2Ev(ptr noundef nonnull align 8 dereferenceable(48) %3) #24
  resume { ptr, i32 } %23

"_ZN3tbb6detail2d235parallel_for_each_operator_selectorIZN32pxrInternal_v0_24__pxrReserved__27TsSimplifySplinesInParallelERKSt6vectorIPNS3_8TsSplineESaIS6_EERKS4_INS3_15GfMultiIntervalESaISB_EEddE3$_0E4callIRKS6_NS1_11feeder_implISG_S6_EEEEDTcmclfp_clsr3stdE7forwardIT_Efp0_EEcvv_EERKSG_OSN_PT0_.exit.i": ; preds = %17
  call void @llvm.lifetime.end.p0(i64 48, ptr nonnull %3)
  call void @llvm.lifetime.end.p0(i64 32, ptr nonnull %4)
  %24 = add i64 %.02.i, 1
  %.not.i = icmp eq i64 %24, %.sroa.0.0.copyload
  br i1 %.not.i, label %"_ZNK3tbb6detail2d225parallel_for_body_wrapperIN9__gnu_cxx17__normal_iteratorIPKPN32pxrInternal_v0_24__pxrReserved__8TsSplineESt6vectorIS7_SaIS7_EEEEZNS5_27TsSimplifySplinesInParallelERKSC_RKSA_INS5_15GfMultiIntervalESaISG_EEddE3$_0S7_EclENS0_2d113blocked_rangeImEE.exit", label %8, !llvm.loop !40

"_ZNK3tbb6detail2d225parallel_for_body_wrapperIN9__gnu_cxx17__normal_iteratorIPKPN32pxrInternal_v0_24__pxrReserved__8TsSplineESt6vectorIS7_SaIS7_EEEEZNS5_27TsSimplifySplinesInParallelERKSC_RKSA_INS5_15GfMultiIntervalESaISG_EEddE3$_0S7_EclENS0_2d113blocked_rangeImEE.exit": ; preds = %"_ZN3tbb6detail2d235parallel_for_each_operator_selectorIZN32pxrInternal_v0_24__pxrReserved__27TsSimplifySplinesInParallelERKSt6vectorIPNS3_8TsSplineESaIS6_EERKS4_INS3_15GfMultiIntervalESaISB_EEddE3$_0E4callIRKS6_NS1_11feeder_implISG_S6_EEEEDTcmclfp_clsr3stdE7forwardIT_Efp0_EEcvv_EERKSG_OSN_PT0_.exit.i", %2
  ret void
}